; Function Attrs: mustprogress uwtable
define { ptr, i64 } @_ZN7rocksdb12BlockBuilder6FinishEv(ptr noundef nonnull align 8 dereferenceable(176) %0) local_unnamed_addr #1 align 2 personality ptr @__gxx_personality_v0 {
  %2 = alloca i32, align 4
  %3 = alloca i32, align 4
  %4 = getelementptr inbounds nuw i8, ptr %0, i64 56
  %5 = getelementptr inbounds nuw i8, ptr %0, i64 64
  %6 = load ptr, ptr %5, align 8, !tbaa !37
  %7 = load ptr, ptr %4, align 8, !tbaa !34
  %.not = icmp eq ptr %6, %7
  br i1 %.not, label %._crit_edge, label %.lr.ph

.lr.ph:                                           ; preds = %1
  %8 = getelementptr inbounds nuw i8, ptr %0, i64 32
  %9 = getelementptr inbounds nuw i8, ptr %0, i64 24
  br label %18

._crit_edge.loopexit:                             ; preds = %_ZN7rocksdb10PutFixed32EPNSt7__cxx1112basic_stringIcSt11char_traitsIcESaIcEEEj.exit
  %10 = trunc i64 %33 to i32
  br label %._crit_edge

._crit_edge:                                      ; preds = %._crit_edge.loopexit, %1
  %.lcssa = phi i32 [ 0, %1 ], [ %10, %._crit_edge.loopexit ]
  %11 = getelementptr inbounds nuw i8, ptr %0, i64 128
  %12 = getelementptr inbounds nuw i8, ptr %0, i64 144
  %13 = load i8, ptr %12, align 8, !tbaa !42, !range !45, !noundef !46
  %14 = trunc nuw i8 %13 to i1
  %15 = load double, ptr %11, align 8
  %16 = fcmp ogt double %15, 0.000000e+00
  %17 = select i1 %14, i1 %16, i1 false
  br i1 %17, label %_ZNK7rocksdb12BlockBuilder19CurrentSizeEstimateEv.exit, label %47

18:                                               ; preds = %.lr.ph, %_ZN7rocksdb10PutFixed32EPNSt7__cxx1112basic_stringIcSt11char_traitsIcESaIcEEEj.exit
  %19 = phi ptr [ %7, %.lr.ph ], [ %29, %_ZN7rocksdb10PutFixed32EPNSt7__cxx1112basic_stringIcSt11char_traitsIcESaIcEEEj.exit ]
  %.09 = phi i64 [ 0, %.lr.ph ], [ %27, %_ZN7rocksdb10PutFixed32EPNSt7__cxx1112basic_stringIcSt11char_traitsIcESaIcEEEj.exit ]
  %20 = getelementptr inbounds nuw i32, ptr %19, i64 %.09
  %21 = load i32, ptr %20, align 4, !tbaa !36
  call void @llvm.lifetime.start.p0(i64 4, ptr nonnull %3)
  store i32 %21, ptr %3, align 4, !tbaa !36
  %22 = load i64, ptr %8, align 8, !tbaa !32
  %23 = and i64 %22, -4
  %24 = icmp eq i64 %23, 4611686018427387900
  br i1 %24, label %25, label %_ZN7rocksdb10PutFixed32EPNSt7__cxx1112basic_stringIcSt11char_traitsIcESaIcEEEj.exit

25:                                               ; preds = %18
  call void @_ZSt20__throw_length_errorPKc(ptr noundef nonnull @.str) #15
  unreachable

_ZN7rocksdb10PutFixed32EPNSt7__cxx1112basic_stringIcSt11char_traitsIcESaIcEEEj.exit: ; preds = %18
  %26 = call noundef nonnull align 8 dereferenceable(32) ptr @_ZNSt7__cxx1112basic_stringIcSt11char_traitsIcESaIcEE9_M_appendEPKcm(ptr noundef nonnull align 8 dereferenceable(32) %9, ptr noundef nonnull %3, i64 noundef 4)
  call void @llvm.lifetime.end.p0(i64 4, ptr nonnull %3)
  %27 = add nuw i64 %.09, 1
  %28 = load ptr, ptr %5, align 8, !tbaa !37
  %29 = load ptr, ptr %4, align 8, !tbaa !34
  %30 = ptrtoint ptr %28 to i64
  %31 = ptrtoint ptr %29 to i64
  %32 = sub i64 %30, %31
  %33 = ashr exact i64 %32, 2
  %34 = icmp ult i64 %27, %33
  br i1 %34, label %18, label %._crit_edge.loopexit, !llvm.loop !51

_ZNK7rocksdb12BlockBuilder19CurrentSizeEstimateEv.exit: ; preds = %._crit_edge
  %35 = getelementptr inbounds nuw i8, ptr %0, i64 80
  %36 = load i64, ptr %35, align 8, !tbaa !43
  %37 = getelementptr inbounds nuw i8, ptr %0, i64 136
  %38 = load double, ptr %37, align 8, !tbaa !41
  %39 = fptoui double %38 to i16
  %40 = or i16 %39, 1
  %41 = zext i16 %40 to i64
  %42 = add nuw nsw i64 %41, 2
  %43 = add i64 %42, %36
  %44 = icmp ult i64 %43, 65537
  br i1 %44, label %45, label %47

45:                                               ; preds = %_ZNK7rocksdb12BlockBuilder19CurrentSizeEstimateEv.exit
  %46 = getelementptr inbounds nuw i8, ptr %0, i64 24
  call void @_ZN7rocksdb25DataBlockHashIndexBuilder6FinishERNSt7__cxx1112basic_stringIcSt11char_traitsIcESaIcEEE(ptr noundef nonnull align 8 dereferenceable(48) %11, ptr noundef nonnull align 8 dereferenceable(32) %46)
  br label %47

47:                                               ; preds = %45, %_ZNK7rocksdb12BlockBuilder19CurrentSizeEstimateEv.exit, %._crit_edge
  %.06 = phi i8 [ 1, %45 ], [ 0, %_ZNK7rocksdb12BlockBuilder19CurrentSizeEstimateEv.exit ], [ 0, %._crit_edge ]
  %48 = call noundef i32 @_ZN7rocksdb27PackIndexTypeAndNumRestartsENS_22BlockBasedTableOptions18DataBlockIndexTypeEj(i8 noundef signext %.06, i32 noundef %.lcssa)
  call void @llvm.lifetime.start.p0(i64 4, ptr nonnull %2)
  store i32 %48, ptr %2, align 4, !tbaa !36
  %49 = getelementptr inbounds nuw i8, ptr %0, i64 32
  %50 = load i64, ptr %49, align 8, !tbaa !32
  %51 = and i64 %50, -4
  %52 = icmp eq i64 %51, 4611686018427387900
  br i1 %52, label %53, label %_ZN7rocksdb10PutFixed32EPNSt7__cxx1112basic_stringIcSt11char_traitsIcESaIcEEEj.exit7

53:                                               ; preds = %47
  call void @_ZSt20__throw_length_errorPKc(ptr noundef nonnull @.str) #15
  unreachable

_ZN7rocksdb10PutFixed32EPNSt7__cxx1112basic_stringIcSt11char_traitsIcESaIcEEEj.exit7: ; preds = %47
  %54 = getelementptr inbounds nuw i8, ptr %0, i64 24
  %55 = call noundef nonnull align 8 dereferenceable(32) ptr @_ZNSt7__cxx1112basic_stringIcSt11char_traitsIcESaIcEE9_M_appendEPKcm(ptr noundef nonnull align 8 dereferenceable(32) %54, ptr noundef nonnull %2, i64 noundef 4)
  call void @llvm.lifetime.end.p0(i64 4, ptr nonnull %2)
  %56 = getelementptr inbounds nuw i8, ptr %0, i64 92
  store i8 1, ptr %56, align 4, !tbaa !39
  %57 = load ptr, ptr %54, align 8, !tbaa !44
  %58 = load i64, ptr %49, align 8, !tbaa !32
  %.fca.0.insert = insertvalue { ptr, i64 } poison, ptr %57, 0
  %.fca.1.insert = insertvalue { ptr, i64 } %.fca.0.insert, i64 %58, 1
  ret { ptr, i64 } %.fca.1.insert
}